target datalayout = "e-m:e-p270:32:32-p271:32:32-p272:64:64-i64:64-i128:128-f80:128-n8:16:32:64-S128"
target triple = "x86_64-unknown-linux-gnu"

%"class.absl::profiling_internal::ExponentialBiased" = type <{ i64, double, i8, [7 x i8] }>

@.str.10 = private unnamed_addr constant [8 x i8] c"head...\00", align 1
@.str.11 = private unnamed_addr constant [6 x i8] c"tail\0A\00", align 1
@.str.12 = private unnamed_addr constant [19 x i8] c"Heads = %d (%f%%)\0A\00", align 1

; Function Attrs: mustprogress nounwind uwtable
define linkonce_odr dso_local void @_ZN4absl18profiling_internal17ExponentialBiasedC2Ev(ptr noundef nonnull align 8 dereferenceable(17) %this) unnamed_addr #7 comdat align 2 {
entry:
  %this.addr = alloca ptr, align 8
  store ptr %this, ptr %this.addr, align 8
  %this1 = load ptr, ptr %this.addr, align 8
  %rng_ = getelementptr inbounds %"class.absl::profiling_internal::ExponentialBiased", ptr %this1, i32 0, i32 0
  store i64 0, ptr %rng_, align 8
  %bias_ = getelementptr inbounds %"class.absl::profiling_internal::ExponentialBiased", ptr %this1, i32 0, i32 1
  store double 0.000000e+00, ptr %bias_, align 8
  %initialized_ = getelementptr inbounds %"class.absl::profiling_internal::ExponentialBiased", ptr %this1, i32 0, i32 2
  store i8 0, ptr %initialized_, align 8
  ret void
}

; Function Attrs: mustprogress uwtable
define internal void @_ZN4absl18profiling_internal12_GLOBAL__N_155ExponentialBiasedTest_CoinTossDemoWithGetSkipCount_Test8TestBodyEv(ptr noundef nonnull align 8 dereferenceable(16) %this) unnamed_addr #4 align 2 {
entry:
  %this.addr = alloca ptr, align 8
  %eb = alloca %"class.absl::profiling_internal::ExponentialBiased", align 8
  %runs = alloca i32, align 4
  %flips = alloca i64, align 8
  %heads = alloca i32, align 4
  %i = alloca i32, align 4
  store ptr %this, ptr %this.addr, align 8
  call void @_ZN4absl18profiling_internal17ExponentialBiasedC2Ev(ptr noundef nonnull align 8 dereferenceable(17) %eb) #3
  store i32 0, ptr %runs, align 4
  br label %for.cond

for.cond:                                         ; preds = %for.inc7, %entry
  %0 = load i32, ptr %runs, align 4
  %cmp = icmp slt i32 %0, 10
  br i1 %cmp, label %for.body, label %for.end8

for.body:                                         ; preds = %for.cond
  %call = call noundef i64 @_ZN4absl18profiling_internal17ExponentialBiased12GetSkipCountEl(ptr noundef nonnull align 8 dereferenceable(17) %eb, i64 noundef 1)
  store i64 %call, ptr %flips, align 8
  br label %for.cond2

for.cond2:                                        ; preds = %for.inc, %for.body
  %1 = load i64, ptr %flips, align 8
  %cmp3 = icmp sgt i64 %1, 0
  br i1 %cmp3, label %for.body4, label %for.end

for.body4:                                        ; preds = %for.cond2
  %call5 = call i32 (ptr, ...) @printf(ptr noundef @.str.10)
  br label %for.inc

for.inc:                                          ; preds = %for.body4
  %2 = load i64, ptr %flips, align 8
  %dec = add nsw i64 %2, -1
  store i64 %dec, ptr %flips, align 8
  br label %for.cond2, !llvm.loop !5

for.end:                                          ; preds = %for.cond2
  %call6 = call i32 (ptr, ...) @printf(ptr noundef @.str.11)
  br label %for.inc7

for.inc7:                                         ; preds = %for.end
  %3 = load i32, ptr %runs, align 4
  %inc = add nsw i32 %3, 1
  store i32 %inc, ptr %runs, align 4
  br label %for.cond, !llvm.loop !7

for.end8:                                         ; preds = %for.cond
  store i32 0, ptr %heads, align 4
  store i32 0, ptr %i, align 4
  br label %for.cond9

for.cond9:                                        ; preds = %for.inc13, %for.end8
  %4 = load i32, ptr %i, align 4
  %cmp10 = icmp slt i32 %4, 10000000
  br i1 %cmp10, label %for.body11, label %for.end17

for.body11:                                       ; preds = %for.cond9
  %5 = load i32, ptr %heads, align 4
  %inc12 = add nsw i32 %5, 1
  store i32 %inc12, ptr %heads, align 4
  br label %for.inc13

for.inc13:                                        ; preds = %for.body11
  %call14 = call noundef i64 @_ZN4absl18profiling_internal17ExponentialBiased12GetSkipCountEl(ptr noundef nonnull align 8 dereferenceable(17) %eb, i64 noundef 1)
  %add = add nsw i64 1, %call14
  %6 = load i32, ptr %i, align 4
  %conv = sext i32 %6 to i64
  %add15 = add nsw i64 %conv, %add
  %conv16 = trunc i64 %add15 to i32
  store i32 %conv16, ptr %i, align 4
  br label %for.cond9, !llvm.loop !8

for.end17:                                        ; preds = %for.cond9
  %7 = load i32, ptr %heads, align 4
  %8 = load i32, ptr %heads, align 4
  %conv18 = sitofp i32 %8 to double
  %mul = fmul double 1.000000e+02, %conv18
  %div = fdiv double %mul, 1.000000e+07
  %call19 = call i32 (ptr, ...) @printf(ptr noundef @.str.12, i32 noundef %7, double noundef %div)
  ret void
}