; Function Attrs: mustprogress uwtable
define internal void @_ZN4absl18profiling_internal12_GLOBAL__N_155ExponentialBiasedTest_CoinTossDemoWithGetSkipCount_Test8TestBodyEv(ptr nocapture nonnull readnone align 8 %this) unnamed_addr #3 align 2 {
entry:
  %eb = alloca %"class.absl::profiling_internal::ExponentialBiased", align 8
  call void @llvm.memset.p0.i64(ptr noundef nonnull align 8 dereferenceable(17) %eb, i8 0, i64 17, i1 false)
  br label %for.body

for.body:                                         ; preds = %entry, %for.end
  %runs.08 = phi i32 [ 0, %entry ], [ %inc, %for.end ]
  %call = call noundef i64 @_ZN4absl18profiling_internal17ExponentialBiased12GetSkipCountEl(ptr noundef nonnull align 8 dereferenceable(17) %eb, i64 noundef 1)
  %cmp36 = icmp sgt i64 %call, 0
  br i1 %cmp36, label %for.body4, label %for.end

for.body4:                                        ; preds = %for.body, %for.body4
  %flips.07 = phi i64 [ %dec, %for.body4 ], [ %call, %for.body ]
  %call5 = call i32 (ptr, ...) @printf(ptr noundef nonnull dereferenceable(1) @.str.10)
  %dec = add nsw i64 %flips.07, -1
  %cmp3 = icmp ugt i64 %flips.07, 1
  br i1 %cmp3, label %for.body4, label %for.end, !llvm.loop !5

for.end:                                          ; preds = %for.body4, %for.body
  %puts = call i32 @puts(ptr nonnull dereferenceable(1) @str)
  %inc = add nuw nsw i32 %runs.08, 1
  %exitcond.not = icmp eq i32 %inc, 10
  br i1 %exitcond.not, label %for.body11, label %for.body, !llvm.loop !7

for.body11:                                       ; preds = %for.end, %for.body11
  %i.010 = phi i32 [ %conv16, %for.body11 ], [ 0, %for.end ]
  %heads.09 = phi i32 [ %inc12, %for.body11 ], [ 0, %for.end ]
  %inc12 = add nuw nsw i32 %heads.09, 1
  %call14 = call noundef i64 @_ZN4absl18profiling_internal17ExponentialBiased12GetSkipCountEl(ptr noundef nonnull align 8 dereferenceable(17) %eb, i64 noundef 1)
  %0 = trunc i64 %call14 to i32
  %1 = add nsw i32 %i.010, 1
  %conv16 = add i32 %1, %0
  %cmp10 = icmp slt i32 %conv16, 10000000
  br i1 %cmp10, label %for.body11, label %for.end17, !llvm.loop !8

for.end17:                                        ; preds = %for.body11
  %conv18 = sitofp i32 %inc12 to double
  %mul = fmul double %conv18, 1.000000e+02
  %div = fdiv double %mul, 1.000000e+07
  %call19 = call i32 (ptr, ...) @printf(ptr noundef nonnull dereferenceable(1) @.str.12, i32 noundef %inc12, double noundef %div)
  ret void
}